; Function Attrs: mustprogress nounwind null_pointer_is_valid sspstrong uwtable
define void @_ZN17CaptureFilterEditD2Ev(ptr noundef align 8 dereferenceable_or_null(288) initializes((0, 8), (16, 24)) %0) unnamed_addr #11 align 2 personality ptr @__gxx_personality_v0 {
  store ptr getelementptr inbounds nuw inrange(-16, 432) (i8, ptr @_ZTV17CaptureFilterEdit, i64 16), ptr %0, align 8
  %2 = getelementptr inbounds nuw i8, ptr %0, i64 16
  store ptr getelementptr inbounds nuw inrange(-16, 64) (i8, ptr @_ZTV17CaptureFilterEdit, i64 464), ptr %2, align 8
  %3 = getelementptr inbounds nuw i8, ptr %0, i64 272
  %4 = load ptr, ptr %3, align 8
  invoke void @_ZN7QThread4quitEv(ptr noundef align 8 dereferenceable_or_null(16) %4)
          to label %5 unwind label %29

5:                                                ; preds = %1
  %6 = load ptr, ptr %3, align 8
  %7 = invoke noundef zeroext i1 @_ZN7QThread4waitE14QDeadlineTimer(ptr noundef align 8 dereferenceable_or_null(16) %6, i64 9223372036854775807, i64 4294967296)
          to label %8 unwind label %29

8:                                                ; preds = %5
  %9 = load ptr, ptr %3, align 8
  %10 = icmp eq ptr %9, null
  br i1 %10, label %15, label %11

11:                                               ; preds = %8
  %12 = load ptr, ptr %9, align 8
  %13 = getelementptr inbounds nuw i8, ptr %12, i64 32
  %14 = load ptr, ptr %13, align 8
  tail call void %14(ptr noundef nonnull align 8 dereferenceable_or_null(16) %9) #23
  br label %15

15:                                               ; preds = %11, %8
  %16 = getelementptr inbounds nuw i8, ptr %0, i64 264
  %17 = load ptr, ptr %16, align 8
  %18 = icmp eq ptr %17, null
  br i1 %18, label %23, label %19

19:                                               ; preds = %15
  %20 = load ptr, ptr %17, align 8
  %21 = getelementptr inbounds nuw i8, ptr %20, i64 32
  %22 = load ptr, ptr %21, align 8
  tail call void %22(ptr noundef nonnull align 8 dereferenceable_or_null(16) %17) #23
  br label %23

23:                                               ; preds = %19, %15
  %24 = getelementptr inbounds nuw i8, ptr %0, i64 192
  %25 = load ptr, ptr %24, align 8
  %.not.i.i.i = icmp eq ptr %25, null
  br i1 %.not.i.i.i, label %_ZN7QStringD2Ev.exit, label %_ZN17QArrayDataPointerIDsE5derefEv.exit.i.i

_ZN17QArrayDataPointerIDsE5derefEv.exit.i.i:      ; preds = %23
  %26 = atomicrmw sub ptr %25, i32 1 seq_cst, align 4
  %.not.i.i = icmp eq i32 %26, 1
  br i1 %.not.i.i, label %27, label %_ZN7QStringD2Ev.exit

27:                                               ; preds = %_ZN17QArrayDataPointerIDsE5derefEv.exit.i.i
  %28 = load ptr, ptr %24, align 8
  tail call void @_ZN10QArrayData10deallocateEPS_xx(ptr noundef %28, i64 noundef 2, i64 noundef 8) #23
  br label %_ZN7QStringD2Ev.exit

_ZN7QStringD2Ev.exit:                             ; preds = %23, %_ZN17QArrayDataPointerIDsE5derefEv.exit.i.i, %27
  tail call void @_ZN14SyntaxLineEditD2Ev(ptr noundef align 8 dereferenceable_or_null(185) %0) #23
  ret void

29:                                               ; preds = %5, %1
  %30 = landingpad { ptr, i32 }
          catch ptr null
  %31 = extractvalue { ptr, i32 } %30, 0
  tail call void @__clang_call_terminate(ptr %31) #26
  unreachable
}